target datalayout = "e-m:e-p270:32:32-p271:32:32-p272:64:64-i64:64-i128:128-f80:128-n8:16:32:64-S128"
target triple = "x86_64-pc-linux-gnu"

%struct.DerBuffer = type { ptr, ptr, i32, i32, i32 }

@stderr = external global ptr, align 8
@.str.1651 = private unnamed_addr constant [24 x i8] c"test_cm_load_ca failed\0A\00", align 1

; Function Attrs: nounwind uwtable
define internal i32 @test_cm_load_ca_buffer_ex(ptr noundef %0, i64 noundef %1, i32 noundef %2, i32 noundef %3) #0 {
  %5 = alloca i32, align 4
  %6 = alloca ptr, align 8
  %7 = alloca i64, align 8
  %8 = alloca i32, align 4
  %9 = alloca i32, align 4
  %10 = alloca i32, align 4
  %11 = alloca ptr, align 8
  %12 = alloca i32, align 4
  store ptr %0, ptr %6, align 8, !tbaa !32
  store i64 %1, ptr %7, align 8, !tbaa !72
  store i32 %2, ptr %8, align 4, !tbaa !10
  store i32 %3, ptr %9, align 4, !tbaa !10
  call void @llvm.lifetime.start.p0(i64 4, ptr %10) #14
  call void @llvm.lifetime.start.p0(i64 8, ptr %11) #14
  %13 = call ptr @wolfSSL_CertManagerNew()
  store ptr %13, ptr %11, align 8, !tbaa !158
  %14 = load ptr, ptr %11, align 8, !tbaa !158
  %15 = icmp eq ptr %14, null
  br i1 %15, label %16, label %19

16:                                               ; preds = %4
  %17 = load ptr, ptr @stderr, align 8, !tbaa !22
  %18 = call i32 (ptr, ptr, ...) @fprintf(ptr noundef %17, ptr noundef @.str.1651) #14
  store i32 -1, ptr %5, align 4
  store i32 1, ptr %12, align 4
  br label %30

19:                                               ; preds = %4
  %20 = load ptr, ptr %11, align 8, !tbaa !158
  %21 = load ptr, ptr %6, align 8, !tbaa !32
  %22 = load i64, ptr %7, align 8, !tbaa !72
  %23 = trunc i64 %22 to i32
  %24 = sext i32 %23 to i64
  %25 = load i32, ptr %8, align 4, !tbaa !10
  %26 = load i32, ptr %9, align 4, !tbaa !10
  %27 = call i32 @wolfSSL_CertManagerLoadCABuffer_ex(ptr noundef %20, ptr noundef %21, i64 noundef %24, i32 noundef %25, i32 noundef 0, i32 noundef %26)
  store i32 %27, ptr %10, align 4, !tbaa !10
  %28 = load ptr, ptr %11, align 8, !tbaa !158
  call void @wolfSSL_CertManagerFree(ptr noundef %28)
  %29 = load i32, ptr %10, align 4, !tbaa !10
  store i32 %29, ptr %5, align 4
  store i32 1, ptr %12, align 4
  br label %30

30:                                               ; preds = %19, %16
  call void @llvm.lifetime.end.p0(i64 8, ptr %11) #14
  call void @llvm.lifetime.end.p0(i64 4, ptr %10) #14
  %31 = load i32, ptr %5, align 4
  ret i32 %31
}

; Function Attrs: nounwind uwtable
define internal i32 @test_cm_load_ca_file_ex(ptr noundef %0, i32 noundef %1) #0 {
  %3 = alloca ptr, align 8
  %4 = alloca i32, align 4
  %5 = alloca i32, align 4
  %6 = alloca ptr, align 8
  %7 = alloca i64, align 8
  %8 = alloca ptr, align 8
  %9 = alloca ptr, align 8
  store ptr %0, ptr %3, align 8, !tbaa !32
  store i32 %1, ptr %4, align 4, !tbaa !10
  call void @llvm.lifetime.start.p0(i64 4, ptr %5) #14
  store i32 0, ptr %5, align 4, !tbaa !10
  call void @llvm.lifetime.start.p0(i64 8, ptr %6) #14
  store ptr null, ptr %6, align 8, !tbaa !32
  call void @llvm.lifetime.start.p0(i64 8, ptr %7) #14
  store i64 0, ptr %7, align 8, !tbaa !72
  call void @llvm.lifetime.start.p0(i64 8, ptr %8) #14
  store ptr null, ptr %8, align 8, !tbaa !137
  %10 = load ptr, ptr %3, align 8, !tbaa !32
  %11 = call i32 @load_file(ptr noundef %10, ptr noundef %6, ptr noundef %7)
  store i32 %11, ptr %5, align 4, !tbaa !10
  %12 = load i32, ptr %5, align 4, !tbaa !10
  %13 = icmp eq i32 %12, 0
  br i1 %13, label %14, label %66

14:                                               ; preds = %2
  %15 = load ptr, ptr %6, align 8, !tbaa !32
  %16 = load i64, ptr %7, align 8, !tbaa !72
  %17 = load i32, ptr %4, align 4, !tbaa !10
  %18 = call i32 @test_cm_load_ca_buffer_ex(ptr noundef %15, i64 noundef %16, i32 noundef 1, i32 noundef %17)
  store i32 %18, ptr %5, align 4, !tbaa !10
  %19 = load i32, ptr %5, align 4, !tbaa !10
  %20 = icmp eq i32 %19, 1
  br i1 %20, label %21, label %40

21:                                               ; preds = %14
  call void @llvm.lifetime.start.p0(i64 8, ptr %9) #14
  %22 = load ptr, ptr %6, align 8, !tbaa !32
  %23 = load i64, ptr %7, align 8, !tbaa !72
  %24 = add i64 %23, 1
  %25 = call ptr @realloc(ptr noundef %22, i64 noundef %24) #20
  store ptr %25, ptr %9, align 8, !tbaa !32
  %26 = load ptr, ptr %9, align 8, !tbaa !32
  %27 = icmp eq ptr %26, null
  br i1 %27, label %28, label %29

28:                                               ; preds = %21
  store i32 -125, ptr %5, align 4, !tbaa !10
  br label %39

29:                                               ; preds = %21
  %30 = load ptr, ptr %9, align 8, !tbaa !32
  store ptr %30, ptr %6, align 8, !tbaa !32
  %31 = load ptr, ptr %6, align 8, !tbaa !32
  %32 = load i64, ptr %7, align 8, !tbaa !72
  %33 = getelementptr inbounds nuw i8, ptr %31, i64 %32
  store i8 0, ptr %33, align 1, !tbaa !58
  %34 = load ptr, ptr %6, align 8, !tbaa !32
  %35 = load i64, ptr %7, align 8, !tbaa !72
  %36 = add i64 %35, 1
  %37 = load i32, ptr %4, align 4, !tbaa !10
  %38 = call i32 @test_cm_load_ca_buffer_ex(ptr noundef %34, i64 noundef %36, i32 noundef 1, i32 noundef %37)
  store i32 %38, ptr %5, align 4, !tbaa !10
  br label %39

39:                                               ; preds = %29, %28
  call void @llvm.lifetime.end.p0(i64 8, ptr %9) #14
  br label %40

40:                                               ; preds = %39, %14
  %41 = load i32, ptr %5, align 4, !tbaa !10
  %42 = icmp eq i32 %41, 1
  br i1 %42, label %43, label %65

43:                                               ; preds = %40
  %44 = load ptr, ptr %6, align 8, !tbaa !32
  %45 = load i64, ptr %7, align 8, !tbaa !72
  %46 = trunc i64 %45 to i32
  %47 = sext i32 %46 to i64
  %48 = call i32 @wc_PemToDer(ptr noundef %44, i64 noundef %47, i32 noundef 6, ptr noundef %8, ptr noundef null, ptr noundef null, ptr noundef null)
  store i32 %48, ptr %5, align 4, !tbaa !10
  %49 = load i32, ptr %5, align 4, !tbaa !10
  %50 = icmp eq i32 %49, 0
  br i1 %50, label %51, label %64

51:                                               ; preds = %43
  %52 = load ptr, ptr %8, align 8, !tbaa !137
  %53 = icmp ne ptr %52, null
  br i1 %53, label %54, label %64

54:                                               ; preds = %51
  %55 = load ptr, ptr %8, align 8, !tbaa !137
  %56 = getelementptr inbounds nuw %struct.DerBuffer, ptr %55, i32 0, i32 0
  %57 = load ptr, ptr %56, align 8, !tbaa !236
  %58 = load ptr, ptr %8, align 8, !tbaa !137
  %59 = getelementptr inbounds nuw %struct.DerBuffer, ptr %58, i32 0, i32 2
  %60 = load i32, ptr %59, align 8, !tbaa !238
  %61 = zext i32 %60 to i64
  %62 = load i32, ptr %4, align 4, !tbaa !10
  %63 = call i32 @test_cm_load_ca_buffer_ex(ptr noundef %57, i64 noundef %61, i32 noundef 2, i32 noundef %62)
  store i32 %63, ptr %5, align 4, !tbaa !10
  call void @wc_FreeDer(ptr noundef %8)
  br label %64

64:                                               ; preds = %54, %51, %43
  br label %65

65:                                               ; preds = %64, %40
  br label %66

66:                                               ; preds = %65, %2
  %67 = load ptr, ptr %6, align 8, !tbaa !32
  call void @free(ptr noundef %67) #14
  %68 = load i32, ptr %5, align 4, !tbaa !10
  call void @llvm.lifetime.end.p0(i64 8, ptr %8) #14
  call void @llvm.lifetime.end.p0(i64 8, ptr %7) #14
  call void @llvm.lifetime.end.p0(i64 8, ptr %6) #14
  call void @llvm.lifetime.end.p0(i64 4, ptr %5) #14
  ret i32 %68
}