; Function Attrs: nounwind uwtable
define internal fastcc i32 @test_cm_load_ca_file_ex(ptr noundef %0, i32 noundef range(i32 0, 3) %1) unnamed_addr #0 {
  %3 = alloca ptr, align 8
  %4 = alloca i64, align 8
  %5 = alloca ptr, align 8
  call void @llvm.lifetime.start.p0(i64 8, ptr nonnull %3) #27
  store ptr null, ptr %3, align 8, !tbaa !83
  call void @llvm.lifetime.start.p0(i64 8, ptr nonnull %4) #27
  store i64 0, ptr %4, align 8, !tbaa !56
  call void @llvm.lifetime.start.p0(i64 8, ptr nonnull %5) #27
  store ptr null, ptr %5, align 8, !tbaa !121
  %6 = call fastcc i32 @load_file(ptr noundef %0, ptr noundef %3, ptr noundef %4)
  %7 = icmp eq i32 %6, 0
  %.pre = load ptr, ptr %3, align 8, !tbaa !83
  br i1 %7, label %8, label %test_cm_load_ca_buffer_ex.exit17.thread

8:                                                ; preds = %2
  %9 = load i64, ptr %4, align 8, !tbaa !56
  %10 = tail call ptr @wolfSSL_CertManagerNew() #27
  %11 = icmp eq ptr %10, null
  br i1 %11, label %test_cm_load_ca_buffer_ex.exit.thread, label %test_cm_load_ca_buffer_ex.exit

test_cm_load_ca_buffer_ex.exit.thread:            ; preds = %8
  %12 = load ptr, ptr @stderr, align 8, !tbaa !22
  %13 = tail call i64 @fwrite(ptr nonnull @.str.1651, i64 23, i64 1, ptr %12) #34
  br label %test_cm_load_ca_buffer_ex.exit17.thread

test_cm_load_ca_buffer_ex.exit:                   ; preds = %8
  %sext.i = shl i64 %9, 32
  %14 = ashr exact i64 %sext.i, 32
  %15 = tail call i32 @wolfSSL_CertManagerLoadCABuffer_ex(ptr noundef nonnull %10, ptr noundef %.pre, i64 noundef %14, i32 noundef 1, i32 noundef 0, i32 noundef range(i32 0, 3) %1) #27
  tail call void @wolfSSL_CertManagerFree(ptr noundef nonnull %10) #27
  %16 = icmp eq i32 %15, 1
  br i1 %16, label %17, label %test_cm_load_ca_buffer_ex.exit17.thread

17:                                               ; preds = %test_cm_load_ca_buffer_ex.exit
  %18 = add i64 %9, 1
  %19 = tail call ptr @realloc(ptr noundef %.pre, i64 noundef %18) #36
  %20 = icmp eq ptr %19, null
  br i1 %20, label %test_cm_load_ca_buffer_ex.exit17.thread, label %21

21:                                               ; preds = %17
  %22 = getelementptr inbounds nuw i8, ptr %19, i64 %9
  store i8 0, ptr %22, align 1, !tbaa !39
  %23 = tail call ptr @wolfSSL_CertManagerNew() #27
  %24 = icmp eq ptr %23, null
  br i1 %24, label %25, label %test_cm_load_ca_buffer_ex.exit17

25:                                               ; preds = %21
  %26 = load ptr, ptr @stderr, align 8, !tbaa !22
  %27 = tail call i64 @fwrite(ptr nonnull @.str.1651, i64 23, i64 1, ptr %26) #34
  br label %test_cm_load_ca_buffer_ex.exit17.thread

test_cm_load_ca_buffer_ex.exit17:                 ; preds = %21
  %sext.i15 = shl i64 %18, 32
  %28 = ashr exact i64 %sext.i15, 32
  %29 = tail call i32 @wolfSSL_CertManagerLoadCABuffer_ex(ptr noundef nonnull %23, ptr noundef nonnull %19, i64 noundef %28, i32 noundef 1, i32 noundef 0, i32 noundef range(i32 0, 3) %1) #27
  tail call void @wolfSSL_CertManagerFree(ptr noundef nonnull %23) #27
  %30 = icmp eq i32 %29, 1
  br i1 %30, label %31, label %test_cm_load_ca_buffer_ex.exit17.thread

31:                                               ; preds = %test_cm_load_ca_buffer_ex.exit17
  %32 = call i32 @wc_PemToDer(ptr noundef nonnull %19, i64 noundef %14, i32 noundef 6, ptr noundef nonnull %5, ptr noundef null, ptr noundef null, ptr noundef null) #27
  %33 = icmp eq i32 %32, 0
  %34 = load ptr, ptr %5, align 8
  %35 = icmp ne ptr %34, null
  %or.cond = select i1 %33, i1 %35, i1 false
  br i1 %or.cond, label %36, label %test_cm_load_ca_buffer_ex.exit17.thread

36:                                               ; preds = %31
  %37 = load ptr, ptr %34, align 8, !tbaa !198
  %38 = getelementptr inbounds nuw i8, ptr %34, i64 16
  %39 = load i32, ptr %38, align 8, !tbaa !200
  %40 = call ptr @wolfSSL_CertManagerNew() #27
  %41 = icmp eq ptr %40, null
  br i1 %41, label %42, label %45

42:                                               ; preds = %36
  %43 = load ptr, ptr @stderr, align 8, !tbaa !22
  %44 = call i64 @fwrite(ptr nonnull @.str.1651, i64 23, i64 1, ptr %43) #34
  br label %test_cm_load_ca_buffer_ex.exit20

45:                                               ; preds = %36
  %46 = sext i32 %39 to i64
  %47 = call i32 @wolfSSL_CertManagerLoadCABuffer_ex(ptr noundef nonnull %40, ptr noundef %37, i64 noundef %46, i32 noundef 2, i32 noundef 0, i32 noundef range(i32 0, 3) %1) #27
  call void @wolfSSL_CertManagerFree(ptr noundef nonnull %40) #27
  br label %test_cm_load_ca_buffer_ex.exit20

test_cm_load_ca_buffer_ex.exit20:                 ; preds = %42, %45
  %.0.i19 = phi i32 [ -1, %42 ], [ %47, %45 ]
  call void @wc_FreeDer(ptr noundef nonnull %5) #27
  br label %test_cm_load_ca_buffer_ex.exit17.thread

test_cm_load_ca_buffer_ex.exit17.thread:          ; preds = %25, %test_cm_load_ca_buffer_ex.exit.thread, %17, %test_cm_load_ca_buffer_ex.exit, %test_cm_load_ca_buffer_ex.exit17, %test_cm_load_ca_buffer_ex.exit20, %31, %2
  %48 = phi ptr [ %19, %test_cm_load_ca_buffer_ex.exit20 ], [ %19, %31 ], [ %19, %test_cm_load_ca_buffer_ex.exit17 ], [ %.pre, %2 ], [ %19, %25 ], [ %.pre, %test_cm_load_ca_buffer_ex.exit.thread ], [ %.pre, %17 ], [ %.pre, %test_cm_load_ca_buffer_ex.exit ]
  %.0 = phi i32 [ %.0.i19, %test_cm_load_ca_buffer_ex.exit20 ], [ %32, %31 ], [ %29, %test_cm_load_ca_buffer_ex.exit17 ], [ %6, %2 ], [ -1, %25 ], [ -1, %test_cm_load_ca_buffer_ex.exit.thread ], [ -125, %17 ], [ %15, %test_cm_load_ca_buffer_ex.exit ]
  call void @free(ptr noundef %48) #27
  call void @llvm.lifetime.end.p0(i64 8, ptr nonnull %5) #27
  call void @llvm.lifetime.end.p0(i64 8, ptr nonnull %4) #27
  call void @llvm.lifetime.end.p0(i64 8, ptr nonnull %3) #27
  ret i32 %.0
}